target datalayout = "e-m:e-p270:32:32-p271:32:32-p272:64:64-i64:64-i128:128-f80:128-n8:16:32:64-S128"
target triple = "x86_64-pc-linux-gnu"

%struct._h248_curr_info_t = type { ptr, ptr, ptr, ptr, ptr, ptr, ptr, ptr, ptr, ptr }
%struct._asn1_ctx_t = type { i32, i32, i8, ptr, ptr, ptr, ptr, ptr, %struct.anon.2, %struct.anon.5, %struct.anon.6, ptr }
%struct.anon.2 = type { i32, i8, i8, i8, ptr, ptr, i32, i32, ptr, ptr, ptr, %union.anon }
%union.anon = type { %struct.anon.3 }
%struct.anon.3 = type { ptr }
%struct.anon.5 = type { ptr, ptr, ptr }
%struct.anon.6 = type { i32, i8, ptr, i32, i32, ptr, ptr, ptr, %union.anon.7 }
%union.anon.7 = type { %struct.anon.8 }
%struct.anon.8 = type { ptr }

@keep_persistent_data = internal global i32 0, align 4
@curr_info = internal global %struct._h248_curr_info_t zeroinitializer, align 8
@error_code = internal global i32 0, align 4

; Function Attrs: nounwind uwtable
define internal i32 @dissect_h248_T_seg_rep_transactionId(i1 noundef zeroext %0, ptr noundef %1, i32 noundef %2, ptr noundef %3, ptr noundef %4, i32 noundef %5) #0 {
  %7 = alloca i8, align 1
  %8 = alloca ptr, align 8
  %9 = alloca i32, align 4
  %10 = alloca ptr, align 8
  %11 = alloca ptr, align 8
  %12 = alloca i32, align 4
  %13 = alloca i32, align 4
  %14 = zext i1 %0 to i8
  store i8 %14, ptr %7, align 1
  store ptr %1, ptr %8, align 8
  store i32 %2, ptr %9, align 4
  store ptr %3, ptr %10, align 8
  store ptr %4, ptr %11, align 8
  store i32 %5, ptr %12, align 4
  store i32 0, ptr %13, align 4
  %15 = load i8, ptr %7, align 1
  %16 = trunc i8 %15 to i1
  %17 = load ptr, ptr %10, align 8
  %18 = getelementptr inbounds %struct._asn1_ctx_t, ptr %17, i32 0, i32 3
  %19 = load ptr, ptr %18, align 8
  %20 = load ptr, ptr %11, align 8
  %21 = load ptr, ptr %8, align 8
  %22 = load i32, ptr %9, align 4
  %23 = call i32 @dissect_h248_trx_id(i1 noundef zeroext %16, ptr noundef %19, ptr noundef %20, ptr noundef %21, i32 noundef %22, ptr noundef %13)
  store i32 %23, ptr %9, align 4
  %24 = getelementptr inbounds %struct._h248_curr_info_t, ptr @curr_info, i32 0, i32 2
  %25 = load ptr, ptr %24, align 8
  %26 = load i32, ptr %13, align 4
  %27 = load ptr, ptr %10, align 8
  %28 = getelementptr inbounds %struct._asn1_ctx_t, ptr %27, i32 0, i32 3
  %29 = load ptr, ptr %28, align 8
  %30 = load i32, ptr @keep_persistent_data, align 4
  %31 = call ptr @gcp_trx(ptr noundef %25, i32 noundef %26, i32 noundef 4, ptr noundef %29, i32 noundef %30)
  %32 = getelementptr inbounds %struct._h248_curr_info_t, ptr @curr_info, i32 0, i32 1
  store ptr %31, ptr %32, align 8
  store i32 0, ptr @error_code, align 4
  %33 = load i32, ptr %9, align 4
  ret i32 %33
}